target datalayout = "e-m:e-p270:32:32-p271:32:32-p272:64:64-i64:64-i128:128-f80:128-n8:16:32:64-S128"
target triple = "x86_64-pc-linux-gnu"

%struct.CCallInfo = type { ptr, i32 }
%struct.lua_State = type { %struct.GCRef, i8, i8, i8, i8, %struct.MRef, %struct.GCRef, ptr, ptr, %struct.MRef, %struct.MRef, %struct.GCRef, %struct.GCRef, ptr, i32 }
%struct.MRef = type { i64 }
%struct.GCRef = type { i64 }
%union.TValue = type { i64 }

@lj_ir_callinfo = external hidden constant [114 x %struct.CCallInfo], align 16

; Function Attrs: alwaysinline nounwind uwtable
define internal void @setint64V(ptr noundef %0, i64 noundef %1) #5 {
  %3 = alloca ptr, align 8
  %4 = alloca i64, align 8
  store ptr %0, ptr %3, align 8, !tbaa !56
  store i64 %1, ptr %4, align 8, !tbaa !61
  %5 = load i64, ptr %4, align 8, !tbaa !61
  %6 = sitofp i64 %5 to double
  %7 = load ptr, ptr %3, align 8, !tbaa !56
  store double %6, ptr %7, align 8, !tbaa !37
  ret void
}

; Function Attrs: nounwind uwtable
define internal i32 @lj_cf_jit_util_ircalladdr(ptr noundef %0) #0 {
  %2 = alloca i32, align 4
  %3 = alloca ptr, align 8
  %4 = alloca i32, align 4
  %5 = alloca ptr, align 8
  %6 = alloca i32, align 4
  store ptr %0, ptr %3, align 8, !tbaa !4
  call void @llvm.lifetime.start.p0(i64 4, ptr %4) #9
  %7 = load ptr, ptr %3, align 8, !tbaa !4
  %8 = call i32 @lj_lib_checkint(ptr noundef %7, i32 noundef 1)
  store i32 %8, ptr %4, align 4, !tbaa !35
  %9 = load i32, ptr %4, align 4, !tbaa !35
  %10 = icmp ult i32 %9, 113
  br i1 %10, label %11, label %23

11:                                               ; preds = %1
  call void @llvm.lifetime.start.p0(i64 8, ptr %5) #9
  %12 = load i32, ptr %4, align 4, !tbaa !35
  %13 = zext i32 %12 to i64
  %14 = getelementptr inbounds nuw [114 x %struct.CCallInfo], ptr @lj_ir_callinfo, i64 0, i64 %13
  %15 = getelementptr inbounds nuw %struct.CCallInfo, ptr %14, i32 0, i32 0
  %16 = load ptr, ptr %15, align 16, !tbaa !110
  store ptr %16, ptr %5, align 8, !tbaa !112
  %17 = load ptr, ptr %3, align 8, !tbaa !4
  %18 = getelementptr inbounds nuw %struct.lua_State, ptr %17, i32 0, i32 8
  %19 = load ptr, ptr %18, align 8, !tbaa !16
  %20 = getelementptr inbounds %union.TValue, ptr %19, i64 -1
  %21 = load ptr, ptr %5, align 8, !tbaa !112
  %22 = ptrtoint ptr %21 to i64
  call void @setint64V(ptr noundef %20, i64 noundef %22)
  store i32 1, ptr %2, align 4
  store i32 1, ptr %6, align 4
  call void @llvm.lifetime.end.p0(i64 8, ptr %5) #9
  br label %24

23:                                               ; preds = %1
  store i32 0, ptr %2, align 4
  store i32 1, ptr %6, align 4
  br label %24

24:                                               ; preds = %23, %11
  call void @llvm.lifetime.end.p0(i64 4, ptr %4) #9
  %25 = load i32, ptr %2, align 4
  ret i32 %25
}