; Function Attrs: nounwind uwtable
define internal range(i32 0, 2) i32 @lj_cf_jit_util_ircalladdr(ptr noundef %0) #0 {
  %2 = tail call i32 @lj_lib_checkint(ptr noundef %0, i32 noundef 1) #8
  %3 = icmp ult i32 %2, 113
  br i1 %3, label %4, label %13

4:                                                ; preds = %1
  %5 = zext nneg i32 %2 to i64
  %6 = getelementptr inbounds nuw [114 x %struct.CCallInfo], ptr @lj_ir_callinfo, i64 0, i64 %5
  %7 = load ptr, ptr %6, align 16, !tbaa !95
  %8 = getelementptr inbounds nuw i8, ptr %0, i64 40
  %9 = load ptr, ptr %8, align 8, !tbaa !32
  %10 = getelementptr inbounds i8, ptr %9, i64 -8
  %11 = ptrtoint ptr %7 to i64
  %12 = sitofp i64 %11 to double
  store double %12, ptr %10, align 8, !tbaa !34
  br label %13

13:                                               ; preds = %1, %4
  %.0 = phi i32 [ 1, %4 ], [ 0, %1 ]
  ret i32 %.0
}